; Function Attrs: mustprogress nofree norecurse nosync nounwind willreturn memory(argmem: readwrite) uwtable
define void @lv_indev_set_type(ptr noundef captures(address_is_null) %0, i32 noundef %1) local_unnamed_addr #4 {
  %3 = icmp eq ptr %0, null
  br i1 %3, label %8, label %4

4:                                                ; preds = %2
  store i32 %1, ptr %0, align 8, !tbaa !23
  %5 = getelementptr inbounds nuw i8, ptr %0, i64 28
  %6 = load i8, ptr %5, align 4
  %7 = or i8 %6, 2
  store i8 %7, ptr %5, align 4
  br label %8

8:                                                ; preds = %2, %4
  ret void
}